(dp0
S'xyz'
p1
ccopy_reg
_reconstructor
p2
(c__main__
DirEntry
p3
c__builtin__
object
p4
Ntp5
Rp6
(dp7
S'value'
p8
I5583
sS'key'
p9
g1
sbsS'testDirSvc'
p10
g2
(g3
g4
Ntp11
Rp12
(dp13
g8
I5581
sg9
g10
sbsS'abc'
p14
g2
(g3
g4
Ntp15
Rp16
(dp17
g8
I5584
sg9
g14
sbs.